; Function Attrs: mustprogress nounwind uwtable
define dso_local void @_ZN4node2fs10FileHandleD2Ev(ptr noundef nonnull align 8 dereferenceable(160) %this) unnamed_addr #3 align 2 {
entry:
  %closing_ = getelementptr inbounds i8, ptr %this, i64 124
  %0 = load i8, ptr %closing_, align 4
  %1 = and i8 %0, 1
  %tobool.not = icmp eq i8 %1, 0
  br i1 %tobool.not, label %do.end7, label %do.body5

do.body5:                                         ; preds = %entry
  tail call void @_ZN4node6AssertERKNS_13AssertionInfoE(ptr noundef nonnull align 8 dereferenceable(24) @_ZZN4node2fs10FileHandleD1EvE4args) #30
  tail call void @abort() #32
  unreachable

do.end7:                                          ; preds = %entry
  tail call void @_ZN4node2fs10FileHandle5CloseEv(ptr noundef nonnull align 8 dereferenceable(160) %this)
  %closed_ = getelementptr inbounds i8, ptr %this, i64 125
  %2 = load i8, ptr %closed_, align 1
  %3 = and i8 %2, 1
  %tobool9.not = icmp eq i8 %3, 0
  br i1 %tobool9.not, label %do.body14, label %do.end19

do.body14:                                        ; preds = %do.end7
  tail call void @_ZN4node6AssertERKNS_13AssertionInfoE(ptr noundef nonnull align 8 dereferenceable(24) @_ZZN4node2fs10FileHandleD1EvE4args_0) #30
  tail call void @abort() #32
  unreachable

do.end19:                                         ; preds = %do.end7
  %binding_data_ = getelementptr inbounds i8, ptr %this, i64 152
  %4 = load ptr, ptr %binding_data_, align 8
  %cmp.not.i = icmp eq ptr %4, null
  br i1 %cmp.not.i, label %_ZN4node17BaseObjectPtrImplINS_2fs11BindingDataELb0EED2Ev.exit, label %if.then.i

if.then.i:                                        ; preds = %do.end19
  tail call void @_ZN4node10BaseObject17decrease_refcountEv(ptr noundef nonnull align 8 dereferenceable(32) %4) #30
  br label %_ZN4node17BaseObjectPtrImplINS_2fs11BindingDataELb0EED2Ev.exit

_ZN4node17BaseObjectPtrImplINS_2fs11BindingDataELb0EED2Ev.exit: ; preds = %do.end19, %if.then.i
  %current_read_ = getelementptr inbounds i8, ptr %this, i64 144
  %5 = load ptr, ptr %current_read_, align 8
  %cmp.not.i1 = icmp eq ptr %5, null
  br i1 %cmp.not.i1, label %_ZN4node17BaseObjectPtrImplINS_2fs18FileHandleReadWrapELb0EED2Ev.exit, label %if.then.i2

if.then.i2:                                       ; preds = %_ZN4node17BaseObjectPtrImplINS_2fs11BindingDataELb0EED2Ev.exit
  tail call void @_ZN4node10BaseObject17decrease_refcountEv(ptr noundef nonnull align 8 dereferenceable(32) %5) #30
  br label %_ZN4node17BaseObjectPtrImplINS_2fs18FileHandleReadWrapELb0EED2Ev.exit

_ZN4node17BaseObjectPtrImplINS_2fs18FileHandleReadWrapELb0EED2Ev.exit: ; preds = %_ZN4node17BaseObjectPtrImplINS_2fs11BindingDataELb0EED2Ev.exit, %if.then.i2
  %6 = getelementptr inbounds i8, ptr %this, i64 56
  store ptr getelementptr inbounds ({ [20 x ptr] }, ptr @_ZTVN4node10StreamBaseE, i64 0, i32 0, i64 2), ptr %6, align 8
  %default_listener_.i = getelementptr inbounds i8, ptr %this, i64 96
  tail call void @_ZN4node14StreamListenerD2Ev(ptr noundef nonnull align 8 dereferenceable(24) %default_listener_.i) #30
  tail call void @_ZN4node14StreamResourceD2Ev(ptr noundef nonnull align 8 dereferenceable(32) %6) #30
  tail call void @_ZN4node9AsyncWrapD2Ev(ptr noundef nonnull align 8 dereferenceable(56) %this) #30
  ret void
}